target datalayout = "e-m:e-p270:32:32-p271:32:32-p272:64:64-i64:64-i128:128-f80:128-n8:16:32:64-S128"
target triple = "x86_64-pc-linux-gnu"

%struct.ArHosekSkyModelState = type { [11 x [9 x double]], [11 x double], double, double, [11 x double], [11 x double], double, double }

@datasetsRGB = dso_local global [3 x ptr] [ptr @datasetRGB1, ptr @datasetRGB2, ptr @datasetRGB3], align 16
@datasetsRGBRad = dso_local global [3 x ptr] [ptr @datasetRGBRad1, ptr @datasetRGBRad2, ptr @datasetRGBRad3], align 16

; Function Attrs: nounwind uwtable
define dso_local ptr @arhosek_rgb_skymodelstate_alloc_init(double noundef %0, double noundef %1, double noundef %2) #0 {
  %4 = alloca double, align 8
  %5 = alloca double, align 8
  %6 = alloca double, align 8
  %7 = alloca ptr, align 8
  %8 = alloca i32, align 4
  store double %0, ptr %4, align 8, !tbaa !9
  store double %1, ptr %5, align 8, !tbaa !9
  store double %2, ptr %6, align 8, !tbaa !9
  call void @llvm.lifetime.start.p0(i64 8, ptr %7) #5
  %9 = call noalias ptr @malloc(i64 noundef 1088) #6
  store ptr %9, ptr %7, align 8, !tbaa !18
  %10 = load ptr, ptr %7, align 8, !tbaa !18
  %11 = getelementptr inbounds nuw %struct.ArHosekSkyModelState, ptr %10, i32 0, i32 3
  store double 0x3F723AC80BF81B3F, ptr %11, align 8, !tbaa !20
  %12 = load double, ptr %4, align 8, !tbaa !9
  %13 = load ptr, ptr %7, align 8, !tbaa !18
  %14 = getelementptr inbounds nuw %struct.ArHosekSkyModelState, ptr %13, i32 0, i32 2
  store double %12, ptr %14, align 8, !tbaa !22
  %15 = load double, ptr %5, align 8, !tbaa !9
  %16 = load ptr, ptr %7, align 8, !tbaa !18
  %17 = getelementptr inbounds nuw %struct.ArHosekSkyModelState, ptr %16, i32 0, i32 6
  store double %15, ptr %17, align 8, !tbaa !23
  %18 = load double, ptr %6, align 8, !tbaa !9
  %19 = load ptr, ptr %7, align 8, !tbaa !18
  %20 = getelementptr inbounds nuw %struct.ArHosekSkyModelState, ptr %19, i32 0, i32 7
  store double %18, ptr %20, align 8, !tbaa !24
  call void @llvm.lifetime.start.p0(i64 4, ptr %8) #5
  store i32 0, ptr %8, align 4, !tbaa !11
  br label %21

21:                                               ; preds = %51, %3
  %22 = load i32, ptr %8, align 4, !tbaa !11
  %23 = icmp ult i32 %22, 3
  br i1 %23, label %24, label %54

24:                                               ; preds = %21
  %25 = load i32, ptr %8, align 4, !tbaa !11
  %26 = zext i32 %25 to i64
  %27 = getelementptr inbounds nuw [3 x ptr], ptr @datasetsRGB, i64 0, i64 %26
  %28 = load ptr, ptr %27, align 8, !tbaa !4
  %29 = load ptr, ptr %7, align 8, !tbaa !18
  %30 = getelementptr inbounds nuw %struct.ArHosekSkyModelState, ptr %29, i32 0, i32 0
  %31 = load i32, ptr %8, align 4, !tbaa !11
  %32 = zext i32 %31 to i64
  %33 = getelementptr inbounds nuw [11 x [9 x double]], ptr %30, i64 0, i64 %32
  %34 = getelementptr inbounds [9 x double], ptr %33, i64 0, i64 0
  %35 = load double, ptr %4, align 8, !tbaa !9
  %36 = load double, ptr %5, align 8, !tbaa !9
  %37 = load double, ptr %6, align 8, !tbaa !9
  call void @ArHosekSkyModel_CookConfiguration(ptr noundef %28, ptr noundef %34, double noundef %35, double noundef %36, double noundef %37)
  %38 = load i32, ptr %8, align 4, !tbaa !11
  %39 = zext i32 %38 to i64
  %40 = getelementptr inbounds nuw [3 x ptr], ptr @datasetsRGBRad, i64 0, i64 %39
  %41 = load ptr, ptr %40, align 8, !tbaa !4
  %42 = load double, ptr %4, align 8, !tbaa !9
  %43 = load double, ptr %5, align 8, !tbaa !9
  %44 = load double, ptr %6, align 8, !tbaa !9
  %45 = call double @ArHosekSkyModel_CookRadianceConfiguration(ptr noundef %41, double noundef %42, double noundef %43, double noundef %44)
  %46 = load ptr, ptr %7, align 8, !tbaa !18
  %47 = getelementptr inbounds nuw %struct.ArHosekSkyModelState, ptr %46, i32 0, i32 1
  %48 = load i32, ptr %8, align 4, !tbaa !11
  %49 = zext i32 %48 to i64
  %50 = getelementptr inbounds nuw [11 x double], ptr %47, i64 0, i64 %49
  store double %45, ptr %50, align 8, !tbaa !9
  br label %51

51:                                               ; preds = %24
  %52 = load i32, ptr %8, align 4, !tbaa !11
  %53 = add i32 %52, 1
  store i32 %53, ptr %8, align 4, !tbaa !11
  br label %21, !llvm.loop !30

54:                                               ; preds = %21
  %55 = load ptr, ptr %7, align 8, !tbaa !18
  call void @llvm.lifetime.end.p0(i64 4, ptr %8) #5
  call void @llvm.lifetime.end.p0(i64 8, ptr %7) #5
  ret ptr %55
}